target datalayout = "e-m:e-p270:32:32-p271:32:32-p272:64:64-i64:64-i128:128-f80:128-n8:16:32:64-S128"
target triple = "x86_64-pc-linux-gnu"

%struct.AVChannelLayout = type { i32, i32, %union.anon.1, ptr }
%union.anon.1 = type { i64 }
%struct.AVRational = type { i32, i32 }
%struct.AVFrame = type { [8 x ptr], [8 x i32], ptr, i32, i32, i32, i32, i32, %struct.AVRational, i64, i64, %struct.AVRational, i32, ptr, i32, i32, [8 x ptr], ptr, i32, ptr, i32, i32, i32, i32, i32, i32, i32, i64, ptr, i32, ptr, ptr, i64, i64, i64, i64, ptr, %struct.AVChannelLayout, i64 }

; Function Attrs: nounwind uwtable
define internal void @do_swap(ptr noundef %0) #0 {
  %2 = alloca ptr, align 8
  %3 = alloca ptr, align 8
  %4 = alloca i32, align 4
  %5 = alloca ptr, align 8
  store ptr %0, ptr %2, align 8, !tbaa !22
  br label %6

6:                                                ; preds = %1
  call void @llvm.lifetime.start.p0(i64 8, ptr %3) #3
  %7 = load ptr, ptr %2, align 8, !tbaa !22
  %8 = getelementptr inbounds nuw %struct.AVFrame, ptr %7, i32 0, i32 0
  %9 = getelementptr inbounds [8 x ptr], ptr %8, i64 0, i64 2
  %10 = load ptr, ptr %9, align 8, !tbaa !42
  store ptr %10, ptr %3, align 8, !tbaa !42
  %11 = load ptr, ptr %2, align 8, !tbaa !22
  %12 = getelementptr inbounds nuw %struct.AVFrame, ptr %11, i32 0, i32 0
  %13 = getelementptr inbounds [8 x ptr], ptr %12, i64 0, i64 1
  %14 = load ptr, ptr %13, align 8, !tbaa !42
  %15 = load ptr, ptr %2, align 8, !tbaa !22
  %16 = getelementptr inbounds nuw %struct.AVFrame, ptr %15, i32 0, i32 0
  %17 = getelementptr inbounds [8 x ptr], ptr %16, i64 0, i64 2
  store ptr %14, ptr %17, align 8, !tbaa !42
  %18 = load ptr, ptr %3, align 8, !tbaa !42
  %19 = load ptr, ptr %2, align 8, !tbaa !22
  %20 = getelementptr inbounds nuw %struct.AVFrame, ptr %19, i32 0, i32 0
  %21 = getelementptr inbounds [8 x ptr], ptr %20, i64 0, i64 1
  store ptr %18, ptr %21, align 8, !tbaa !42
  call void @llvm.lifetime.end.p0(i64 8, ptr %3) #3
  br label %22

22:                                               ; preds = %6
  br label %23

23:                                               ; preds = %22
  call void @llvm.lifetime.start.p0(i64 4, ptr %4) #3
  %24 = load ptr, ptr %2, align 8, !tbaa !22
  %25 = getelementptr inbounds nuw %struct.AVFrame, ptr %24, i32 0, i32 1
  %26 = getelementptr inbounds [8 x i32], ptr %25, i64 0, i64 2
  %27 = load i32, ptr %26, align 8, !tbaa !14
  store i32 %27, ptr %4, align 4, !tbaa !14
  %28 = load ptr, ptr %2, align 8, !tbaa !22
  %29 = getelementptr inbounds nuw %struct.AVFrame, ptr %28, i32 0, i32 1
  %30 = getelementptr inbounds [8 x i32], ptr %29, i64 0, i64 1
  %31 = load i32, ptr %30, align 4, !tbaa !14
  %32 = load ptr, ptr %2, align 8, !tbaa !22
  %33 = getelementptr inbounds nuw %struct.AVFrame, ptr %32, i32 0, i32 1
  %34 = getelementptr inbounds [8 x i32], ptr %33, i64 0, i64 2
  store i32 %31, ptr %34, align 8, !tbaa !14
  %35 = load i32, ptr %4, align 4, !tbaa !14
  %36 = load ptr, ptr %2, align 8, !tbaa !22
  %37 = getelementptr inbounds nuw %struct.AVFrame, ptr %36, i32 0, i32 1
  %38 = getelementptr inbounds [8 x i32], ptr %37, i64 0, i64 1
  store i32 %35, ptr %38, align 4, !tbaa !14
  call void @llvm.lifetime.end.p0(i64 4, ptr %4) #3
  br label %39

39:                                               ; preds = %23
  br label %40

40:                                               ; preds = %39
  call void @llvm.lifetime.start.p0(i64 8, ptr %5) #3
  %41 = load ptr, ptr %2, align 8, !tbaa !22
  %42 = getelementptr inbounds nuw %struct.AVFrame, ptr %41, i32 0, i32 16
  %43 = getelementptr inbounds [8 x ptr], ptr %42, i64 0, i64 2
  %44 = load ptr, ptr %43, align 8, !tbaa !43
  store ptr %44, ptr %5, align 8, !tbaa !43
  %45 = load ptr, ptr %2, align 8, !tbaa !22
  %46 = getelementptr inbounds nuw %struct.AVFrame, ptr %45, i32 0, i32 16
  %47 = getelementptr inbounds [8 x ptr], ptr %46, i64 0, i64 1
  %48 = load ptr, ptr %47, align 8, !tbaa !43
  %49 = load ptr, ptr %2, align 8, !tbaa !22
  %50 = getelementptr inbounds nuw %struct.AVFrame, ptr %49, i32 0, i32 16
  %51 = getelementptr inbounds [8 x ptr], ptr %50, i64 0, i64 2
  store ptr %48, ptr %51, align 8, !tbaa !43
  %52 = load ptr, ptr %5, align 8, !tbaa !43
  %53 = load ptr, ptr %2, align 8, !tbaa !22
  %54 = getelementptr inbounds nuw %struct.AVFrame, ptr %53, i32 0, i32 16
  %55 = getelementptr inbounds [8 x ptr], ptr %54, i64 0, i64 1
  store ptr %52, ptr %55, align 8, !tbaa !43
  call void @llvm.lifetime.end.p0(i64 8, ptr %5) #3
  br label %56

56:                                               ; preds = %40
  ret void
}

; Function Attrs: nounwind uwtable
define internal ptr @get_video_buffer(ptr noundef %0, i32 noundef %1, i32 noundef %2) #0 {
  %4 = alloca ptr, align 8
  %5 = alloca i32, align 4
  %6 = alloca i32, align 4
  %7 = alloca ptr, align 8
  store ptr %0, ptr %4, align 8, !tbaa !20
  store i32 %1, ptr %5, align 4, !tbaa !14
  store i32 %2, ptr %6, align 4, !tbaa !14
  call void @llvm.lifetime.start.p0(i64 8, ptr %7) #3
  %8 = load ptr, ptr %4, align 8, !tbaa !20
  %9 = load i32, ptr %5, align 4, !tbaa !14
  %10 = load i32, ptr %6, align 4, !tbaa !14
  %11 = call ptr @ff_default_get_video_buffer(ptr noundef %8, i32 noundef %9, i32 noundef %10)
  store ptr %11, ptr %7, align 8, !tbaa !22
  %12 = load ptr, ptr %7, align 8, !tbaa !22
  call void @do_swap(ptr noundef %12)
  %13 = load ptr, ptr %7, align 8, !tbaa !22
  call void @llvm.lifetime.end.p0(i64 8, ptr %7) #3
  ret ptr %13
}