; Function Attrs: nounwind uwtable
define internal ptr @get_video_buffer(ptr noundef %0, i32 noundef %1, i32 noundef %2) #0 {
  %4 = tail call ptr @ff_default_get_video_buffer(ptr noundef %0, i32 noundef %1, i32 noundef %2) #3
  %5 = getelementptr inbounds nuw i8, ptr %4, i64 16
  %6 = load ptr, ptr %5, align 8, !tbaa !23
  %7 = getelementptr inbounds nuw i8, ptr %4, i64 8
  %8 = load ptr, ptr %7, align 8, !tbaa !23
  store ptr %8, ptr %5, align 8, !tbaa !23
  store ptr %6, ptr %7, align 8, !tbaa !23
  %9 = getelementptr inbounds nuw i8, ptr %4, i64 72
  %10 = load i32, ptr %9, align 8, !tbaa !24
  %11 = getelementptr inbounds nuw i8, ptr %4, i64 68
  %12 = load i32, ptr %11, align 4, !tbaa !24
  store i32 %12, ptr %9, align 8, !tbaa !24
  store i32 %10, ptr %11, align 4, !tbaa !24
  %13 = getelementptr inbounds nuw i8, ptr %4, i64 200
  %14 = load ptr, ptr %13, align 8, !tbaa !25
  %15 = getelementptr inbounds nuw i8, ptr %4, i64 192
  %16 = load ptr, ptr %15, align 8, !tbaa !25
  store ptr %16, ptr %13, align 8, !tbaa !25
  store ptr %14, ptr %15, align 8, !tbaa !25
  ret ptr %4
}